target datalayout = "e-m:e-p270:32:32-p271:32:32-p272:64:64-i64:64-i128:128-f80:128-n8:16:32:64-S128"
target triple = "x86_64-pc-linux-gnu"

%struct.RanState = type { [4 x i64] }

; Function Attrs: nounwind uwtable
define internal i64 @rotl(i64 noundef %0, i32 noundef %1) #0 {
  %3 = alloca i64, align 8
  %4 = alloca i32, align 4
  store i64 %0, ptr %3, align 8, !tbaa !18
  store i32 %1, ptr %4, align 4, !tbaa !12
  %5 = load i64, ptr %3, align 8, !tbaa !18
  %6 = load i32, ptr %4, align 4, !tbaa !12
  %7 = zext i32 %6 to i64
  %8 = shl i64 %5, %7
  %9 = load i64, ptr %3, align 8, !tbaa !18
  %10 = and i64 %9, -1
  %11 = load i32, ptr %4, align 4, !tbaa !12
  %12 = sub nsw i32 64, %11
  %13 = zext i32 %12 to i64
  %14 = lshr i64 %10, %13
  %15 = or i64 %8, %14
  ret i64 %15
}

; Function Attrs: nounwind uwtable
define internal void @setseed(ptr noundef %0, ptr noundef %1, i64 noundef %2, i64 noundef %3) #0 {
  %5 = alloca ptr, align 8
  %6 = alloca ptr, align 8
  %7 = alloca i64, align 8
  %8 = alloca i64, align 8
  %9 = alloca i32, align 4
  store ptr %0, ptr %5, align 8, !tbaa !4
  store ptr %1, ptr %6, align 8, !tbaa !16
  store i64 %2, ptr %7, align 8, !tbaa !10
  store i64 %3, ptr %8, align 8, !tbaa !10
  call void @llvm.lifetime.start.p0(i64 4, ptr %9) #6
  %10 = load i64, ptr %7, align 8, !tbaa !10
  %11 = load ptr, ptr %6, align 8, !tbaa !16
  %12 = getelementptr inbounds i64, ptr %11, i64 0
  store i64 %10, ptr %12, align 8, !tbaa !18
  %13 = load ptr, ptr %6, align 8, !tbaa !16
  %14 = getelementptr inbounds i64, ptr %13, i64 1
  store i64 255, ptr %14, align 8, !tbaa !18
  %15 = load i64, ptr %8, align 8, !tbaa !10
  %16 = load ptr, ptr %6, align 8, !tbaa !16
  %17 = getelementptr inbounds i64, ptr %16, i64 2
  store i64 %15, ptr %17, align 8, !tbaa !18
  %18 = load ptr, ptr %6, align 8, !tbaa !16
  %19 = getelementptr inbounds i64, ptr %18, i64 3
  store i64 0, ptr %19, align 8, !tbaa !18
  store i32 0, ptr %9, align 4, !tbaa !12
  br label %20

20:                                               ; preds = %26, %4
  %21 = load i32, ptr %9, align 4, !tbaa !12
  %22 = icmp slt i32 %21, 16
  br i1 %22, label %23, label %29

23:                                               ; preds = %20
  %24 = load ptr, ptr %6, align 8, !tbaa !16
  %25 = call i64 @nextrand(ptr noundef %24)
  br label %26

26:                                               ; preds = %23
  %27 = load i32, ptr %9, align 4, !tbaa !12
  %28 = add nsw i32 %27, 1
  store i32 %28, ptr %9, align 4, !tbaa !12
  br label %20

29:                                               ; preds = %20
  %30 = load ptr, ptr %5, align 8, !tbaa !4
  %31 = load i64, ptr %7, align 8, !tbaa !10
  call void @lua_pushinteger(ptr noundef %30, i64 noundef %31)
  %32 = load ptr, ptr %5, align 8, !tbaa !4
  %33 = load i64, ptr %8, align 8, !tbaa !10
  call void @lua_pushinteger(ptr noundef %32, i64 noundef %33)
  call void @llvm.lifetime.end.p0(i64 4, ptr %9) #6
  ret void
}

; Function Attrs: nounwind uwtable
define internal i64 @nextrand(ptr noundef %0) #0 {
  %2 = alloca ptr, align 8
  %3 = alloca i64, align 8
  %4 = alloca i64, align 8
  %5 = alloca i64, align 8
  %6 = alloca i64, align 8
  %7 = alloca i64, align 8
  store ptr %0, ptr %2, align 8, !tbaa !16
  call void @llvm.lifetime.start.p0(i64 8, ptr %3) #6
  %8 = load ptr, ptr %2, align 8, !tbaa !16
  %9 = getelementptr inbounds i64, ptr %8, i64 0
  %10 = load i64, ptr %9, align 8, !tbaa !18
  store i64 %10, ptr %3, align 8, !tbaa !18
  call void @llvm.lifetime.start.p0(i64 8, ptr %4) #6
  %11 = load ptr, ptr %2, align 8, !tbaa !16
  %12 = getelementptr inbounds i64, ptr %11, i64 1
  %13 = load i64, ptr %12, align 8, !tbaa !18
  store i64 %13, ptr %4, align 8, !tbaa !18
  call void @llvm.lifetime.start.p0(i64 8, ptr %5) #6
  %14 = load ptr, ptr %2, align 8, !tbaa !16
  %15 = getelementptr inbounds i64, ptr %14, i64 2
  %16 = load i64, ptr %15, align 8, !tbaa !18
  %17 = load i64, ptr %3, align 8, !tbaa !18
  %18 = xor i64 %16, %17
  store i64 %18, ptr %5, align 8, !tbaa !18
  call void @llvm.lifetime.start.p0(i64 8, ptr %6) #6
  %19 = load ptr, ptr %2, align 8, !tbaa !16
  %20 = getelementptr inbounds i64, ptr %19, i64 3
  %21 = load i64, ptr %20, align 8, !tbaa !18
  %22 = load i64, ptr %4, align 8, !tbaa !18
  %23 = xor i64 %21, %22
  store i64 %23, ptr %6, align 8, !tbaa !18
  call void @llvm.lifetime.start.p0(i64 8, ptr %7) #6
  %24 = load i64, ptr %4, align 8, !tbaa !18
  %25 = mul i64 %24, 5
  %26 = call i64 @rotl(i64 noundef %25, i32 noundef 7)
  %27 = mul i64 %26, 9
  store i64 %27, ptr %7, align 8, !tbaa !18
  %28 = load i64, ptr %3, align 8, !tbaa !18
  %29 = load i64, ptr %6, align 8, !tbaa !18
  %30 = xor i64 %28, %29
  %31 = load ptr, ptr %2, align 8, !tbaa !16
  %32 = getelementptr inbounds i64, ptr %31, i64 0
  store i64 %30, ptr %32, align 8, !tbaa !18
  %33 = load i64, ptr %4, align 8, !tbaa !18
  %34 = load i64, ptr %5, align 8, !tbaa !18
  %35 = xor i64 %33, %34
  %36 = load ptr, ptr %2, align 8, !tbaa !16
  %37 = getelementptr inbounds i64, ptr %36, i64 1
  store i64 %35, ptr %37, align 8, !tbaa !18
  %38 = load i64, ptr %5, align 8, !tbaa !18
  %39 = load i64, ptr %4, align 8, !tbaa !18
  %40 = shl i64 %39, 17
  %41 = xor i64 %38, %40
  %42 = load ptr, ptr %2, align 8, !tbaa !16
  %43 = getelementptr inbounds i64, ptr %42, i64 2
  store i64 %41, ptr %43, align 8, !tbaa !18
  %44 = load i64, ptr %6, align 8, !tbaa !18
  %45 = call i64 @rotl(i64 noundef %44, i32 noundef 45)
  %46 = load ptr, ptr %2, align 8, !tbaa !16
  %47 = getelementptr inbounds i64, ptr %46, i64 3
  store i64 %45, ptr %47, align 8, !tbaa !18
  %48 = load i64, ptr %7, align 8, !tbaa !18
  call void @llvm.lifetime.end.p0(i64 8, ptr %7) #6
  call void @llvm.lifetime.end.p0(i64 8, ptr %6) #6
  call void @llvm.lifetime.end.p0(i64 8, ptr %5) #6
  call void @llvm.lifetime.end.p0(i64 8, ptr %4) #6
  call void @llvm.lifetime.end.p0(i64 8, ptr %3) #6
  ret i64 %48
}

; Function Attrs: nounwind uwtable
define internal i32 @math_randomseed(ptr noundef %0) #0 {
  %2 = alloca ptr, align 8
  %3 = alloca ptr, align 8
  %4 = alloca i64, align 8
  %5 = alloca i64, align 8
  store ptr %0, ptr %2, align 8, !tbaa !4
  call void @llvm.lifetime.start.p0(i64 8, ptr %3) #6
  %6 = load ptr, ptr %2, align 8, !tbaa !4
  %7 = call ptr @lua_touserdata(ptr noundef %6, i32 noundef -1001001)
  store ptr %7, ptr %3, align 8, !tbaa !9
  call void @llvm.lifetime.start.p0(i64 8, ptr %4) #6
  call void @llvm.lifetime.start.p0(i64 8, ptr %5) #6
  %8 = load ptr, ptr %2, align 8, !tbaa !4
  %9 = call i32 @lua_type(ptr noundef %8, i32 noundef 1)
  %10 = icmp eq i32 %9, -1
  br i1 %10, label %11, label %20

11:                                               ; preds = %1
  %12 = load ptr, ptr %2, align 8, !tbaa !4
  %13 = call i32 @luaL_makeseed(ptr noundef %12)
  %14 = zext i32 %13 to i64
  store i64 %14, ptr %4, align 8, !tbaa !10
  %15 = load ptr, ptr %3, align 8, !tbaa !9
  %16 = getelementptr inbounds nuw %struct.RanState, ptr %15, i32 0, i32 0
  %17 = getelementptr inbounds [4 x i64], ptr %16, i64 0, i64 0
  %18 = call i64 @nextrand(ptr noundef %17)
  %19 = and i64 %18, -1
  store i64 %19, ptr %5, align 8, !tbaa !10
  br label %25

20:                                               ; preds = %1
  %21 = load ptr, ptr %2, align 8, !tbaa !4
  %22 = call i64 @luaL_checkinteger(ptr noundef %21, i32 noundef 1)
  store i64 %22, ptr %4, align 8, !tbaa !10
  %23 = load ptr, ptr %2, align 8, !tbaa !4
  %24 = call i64 @luaL_optinteger(ptr noundef %23, i32 noundef 2, i64 noundef 0)
  store i64 %24, ptr %5, align 8, !tbaa !10
  br label %25

25:                                               ; preds = %20, %11
  %26 = load ptr, ptr %2, align 8, !tbaa !4
  %27 = load ptr, ptr %3, align 8, !tbaa !9
  %28 = getelementptr inbounds nuw %struct.RanState, ptr %27, i32 0, i32 0
  %29 = getelementptr inbounds [4 x i64], ptr %28, i64 0, i64 0
  %30 = load i64, ptr %4, align 8, !tbaa !10
  %31 = load i64, ptr %5, align 8, !tbaa !10
  call void @setseed(ptr noundef %26, ptr noundef %29, i64 noundef %30, i64 noundef %31)
  call void @llvm.lifetime.end.p0(i64 8, ptr %5) #6
  call void @llvm.lifetime.end.p0(i64 8, ptr %4) #6
  call void @llvm.lifetime.end.p0(i64 8, ptr %3) #6
  ret i32 2
}