; Function Attrs: nounwind uwtable
define internal noundef i32 @math_randomseed(ptr noundef %0) #0 {
  %2 = tail call ptr @lua_touserdata(ptr noundef %0, i32 noundef -1001001) #6
  %3 = tail call i32 @lua_type(ptr noundef %0, i32 noundef 1) #6
  %4 = icmp eq i32 %3, -1
  br i1 %4, label %5, label %15

5:                                                ; preds = %1
  %6 = tail call i32 @luaL_makeseed(ptr noundef %0) #6
  %7 = zext i32 %6 to i64
  %8 = getelementptr inbounds nuw i8, ptr %2, i64 8
  %9 = load i64, ptr %8, align 8, !tbaa !4
  %10 = mul i64 %9, 5
  %11 = mul i64 %9, 640
  %12 = lshr i64 %10, 57
  %13 = or disjoint i64 %12, %11
  %14 = mul i64 %13, 9
  br label %18

15:                                               ; preds = %1
  %16 = tail call i64 @luaL_checkinteger(ptr noundef %0, i32 noundef 1) #6
  %17 = tail call i64 @luaL_optinteger(ptr noundef %0, i32 noundef 2, i64 noundef 0) #6
  br label %18

18:                                               ; preds = %15, %5
  %.09 = phi i64 [ %7, %5 ], [ %16, %15 ]
  %.0 = phi i64 [ %14, %5 ], [ %17, %15 ]
  br label %19

19:                                               ; preds = %19, %18
  %.018.i = phi i32 [ 0, %18 ], [ %31, %19 ]
  %20 = phi i64 [ %.09, %18 ], [ %26, %19 ]
  %21 = phi i64 [ 255, %18 ], [ %27, %19 ]
  %22 = phi i64 [ %.0, %18 ], [ %29, %19 ]
  %23 = phi i64 [ 0, %18 ], [ %30, %19 ]
  %24 = xor i64 %22, %20
  %25 = xor i64 %23, %21
  %26 = xor i64 %25, %20
  %27 = xor i64 %24, %21
  %28 = shl i64 %21, 17
  %29 = xor i64 %24, %28
  %30 = tail call i64 @llvm.fshl.i64(i64 %25, i64 %25, i64 45)
  %31 = add nuw nsw i32 %.018.i, 1
  %exitcond.not.i = icmp eq i32 %31, 16
  br i1 %exitcond.not.i, label %setseed.exit, label %19

setseed.exit:                                     ; preds = %19
  %32 = getelementptr inbounds nuw i8, ptr %2, i64 24
  %33 = getelementptr inbounds nuw i8, ptr %2, i64 16
  %34 = getelementptr inbounds nuw i8, ptr %2, i64 8
  store i64 %26, ptr %2, align 8, !tbaa !4
  store i64 %27, ptr %34, align 8, !tbaa !4
  store i64 %29, ptr %33, align 8, !tbaa !4
  store i64 %30, ptr %32, align 8, !tbaa !4
  tail call void @lua_pushinteger(ptr noundef %0, i64 noundef %.09) #6
  tail call void @lua_pushinteger(ptr noundef %0, i64 noundef %.0) #6
  ret i32 2
}